; Function Attrs: mustprogress nounwind uwtable
define dso_local noundef zeroext i1 @_ZN19cmCMakePresetsGraph11BuildPreset23VisitPresetAfterInheritEiP11cmJSONState(ptr noundef nonnull align 8 dereferenceable(360) %0, i32 %1, ptr nocapture readnone %2) unnamed_addr #5 align 2 {
  %4 = getelementptr inbounds i8, ptr %0, i64 64
  %5 = load i8, ptr %4, align 8
  %6 = and i8 %5, 1
  %.not = icmp eq i8 %6, 0
  br i1 %.not, label %7, label %10

7:                                                ; preds = %3
  %8 = getelementptr inbounds i8, ptr %0, i64 216
  %9 = tail call noundef zeroext i1 @_ZNKSt7__cxx1112basic_stringIcSt11char_traitsIcESaIcEE5emptyEv(ptr noundef nonnull align 8 dereferenceable(32) %8) #20
  br i1 %9, label %11, label %10

10:                                               ; preds = %7, %3
  br label %11

11:                                               ; preds = %7, %10
  %.0 = phi i1 [ true, %10 ], [ false, %7 ]
  ret i1 %.0
}